target datalayout = "e-m:e-p270:32:32-p271:32:32-p272:64:64-i64:64-i128:128-f80:128-n8:16:32:64-S128"
target triple = "x86_64-pc-linux-gnu"

%"class.cvtest::ArrayTest" = type { %"class.cvtest::BaseTest", i8, i8, i8, i8, i32, i32, %"class.std::vector", %"class.std::vector.3", [4 x float] }
%"class.cvtest::BaseTest" = type { ptr, i32, %"class.std::__cxx11::basic_string", ptr }
%"class.std::__cxx11::basic_string" = type { %"struct.std::__cxx11::basic_string<char>::_Alloc_hider", i64, %union.anon }
%"struct.std::__cxx11::basic_string<char>::_Alloc_hider" = type { ptr }
%union.anon = type { i64, [8 x i8] }
%"class.std::vector" = type { %"struct.std::_Vector_base" }
%"struct.std::_Vector_base" = type { %"struct.std::_Vector_base<std::vector<void *>, std::allocator<std::vector<void *>>>::_Vector_impl" }
%"struct.std::_Vector_base<std::vector<void *>, std::allocator<std::vector<void *>>>::_Vector_impl" = type { %"struct.std::_Vector_base<std::vector<void *>, std::allocator<std::vector<void *>>>::_Vector_impl_data" }
%"struct.std::_Vector_base<std::vector<void *>, std::allocator<std::vector<void *>>>::_Vector_impl_data" = type { ptr, ptr, ptr }
%"class.std::vector.3" = type { %"struct.std::_Vector_base.4" }
%"struct.std::_Vector_base.4" = type { %"struct.std::_Vector_base<std::vector<cv::Mat>, std::allocator<std::vector<cv::Mat>>>::_Vector_impl" }
%"struct.std::_Vector_base<std::vector<cv::Mat>, std::allocator<std::vector<cv::Mat>>>::_Vector_impl" = type { %"struct.std::_Vector_base<std::vector<cv::Mat>, std::allocator<std::vector<cv::Mat>>>::_Vector_impl_data" }
%"struct.std::_Vector_base<std::vector<cv::Mat>, std::allocator<std::vector<cv::Mat>>>::_Vector_impl_data" = type { ptr, ptr, ptr }
%"class.cv::FileNode" = type { ptr, i64, i64 }
%"class.cvtest::TS" = type { ptr, %"class.std::vector.13", %"class.std::vector.13", %"struct.cvtest::TestInfo", %"class.std::__cxx11::basic_string", %"struct.cvtest::TSParams", [4 x %"class.std::__cxx11::basic_string"] }
%"class.std::vector.13" = type { %"struct.std::_Vector_base.14" }
%"struct.std::_Vector_base.14" = type { %"struct.std::_Vector_base<std::__cxx11::basic_string<char>, std::allocator<std::__cxx11::basic_string<char>>>::_Vector_impl" }
%"struct.std::_Vector_base<std::__cxx11::basic_string<char>, std::allocator<std::__cxx11::basic_string<char>>>::_Vector_impl" = type { %"struct.std::_Vector_base<std::__cxx11::basic_string<char>, std::allocator<std::__cxx11::basic_string<char>>>::_Vector_impl_data" }
%"struct.std::_Vector_base<std::__cxx11::basic_string<char>, std::allocator<std::__cxx11::basic_string<char>>>::_Vector_impl_data" = type { ptr, ptr, ptr }
%"struct.cvtest::TestInfo" = type <{ ptr, i32, [4 x i8], i64, i64, i32, [4 x i8] }>
%"struct.cvtest::TSParams" = type { i64, i8, double }

@.str = private unnamed_addr constant [19 x i8] c"min_log_array_size\00", align 1
@.str.21 = private unnamed_addr constant [19 x i8] c"max_log_array_size\00", align 1
@.str.22 = private unnamed_addr constant [16 x i8] c"test_case_count\00", align 1

; Function Attrs: alwaysinline mustprogress nounwind uwtable
define internal noundef i32 @_ZL14_mm_cvtsd_si32Dv2_d(<2 x double> noundef %0) #16 {
  %2 = alloca <2 x double>, align 16
  store <2 x double> %0, ptr %2, align 16, !tbaa !64
  %3 = load <2 x double>, ptr %2, align 16, !tbaa !64
  %4 = call i32 @llvm.x86.sse2.cvtsd2si(<2 x double> %3)
  ret i32 %4
}

; Function Attrs: alwaysinline mustprogress nounwind uwtable
define internal noundef <2 x double> @_ZL10_mm_set_sdd(double noundef %0) #16 {
  %2 = alloca double, align 8
  %3 = alloca <2 x double>, align 16
  store double %0, ptr %2, align 8, !tbaa !62
  %4 = load double, ptr %2, align 8, !tbaa !62
  %5 = insertelement <2 x double> poison, double %4, i32 0
  %6 = insertelement <2 x double> %5, double 0.000000e+00, i32 1
  store <2 x double> %6, ptr %3, align 16, !tbaa !64
  %7 = load <2 x double>, ptr %3, align 16, !tbaa !64
  ret <2 x double> %7
}

; Function Attrs: inlinehint mustprogress nounwind uwtable
define linkonce_odr hidden noundef i32 @_ZN6cvtest7clipIntEiii(i32 noundef %0, i32 noundef %1, i32 noundef %2) #4 comdat {
  %4 = alloca i32, align 4
  %5 = alloca i32, align 4
  %6 = alloca i32, align 4
  store i32 %0, ptr %4, align 4, !tbaa !8
  store i32 %1, ptr %5, align 4, !tbaa !8
  store i32 %2, ptr %6, align 4, !tbaa !8
  %7 = load i32, ptr %4, align 4, !tbaa !8
  %8 = load i32, ptr %5, align 4, !tbaa !8
  %9 = icmp slt i32 %7, %8
  br i1 %9, label %10, label %12

10:                                               ; preds = %3
  %11 = load i32, ptr %5, align 4, !tbaa !8
  store i32 %11, ptr %4, align 4, !tbaa !8
  br label %12

12:                                               ; preds = %10, %3
  %13 = load i32, ptr %4, align 4, !tbaa !8
  %14 = load i32, ptr %6, align 4, !tbaa !8
  %15 = icmp sgt i32 %13, %14
  br i1 %15, label %16, label %18

16:                                               ; preds = %12
  %17 = load i32, ptr %6, align 4, !tbaa !8
  store i32 %17, ptr %4, align 4, !tbaa !8
  br label %18

18:                                               ; preds = %16, %12
  %19 = load i32, ptr %4, align 4, !tbaa !8
  ret i32 %19
}

; Function Attrs: inlinehint mustprogress uwtable
define internal noundef i32 @_ZL7cvRoundd(double noundef %0) #10 {
  %2 = alloca double, align 8
  %3 = alloca <2 x double>, align 16
  store double %0, ptr %2, align 8, !tbaa !62
  call void @llvm.lifetime.start.p0(i64 16, ptr %3) #3
  %4 = load double, ptr %2, align 8, !tbaa !62
  %5 = call noundef <2 x double> @_ZL10_mm_set_sdd(double noundef %4)
  store <2 x double> %5, ptr %3, align 16, !tbaa !64
  %6 = load <2 x double>, ptr %3, align 16, !tbaa !64
  %7 = call noundef i32 @_ZL14_mm_cvtsd_si32Dv2_d(<2 x double> noundef %6)
  call void @llvm.lifetime.end.p0(i64 16, ptr %3) #3
  ret i32 %7
}

; Function Attrs: mustprogress nounwind uwtable
define linkonce_odr hidden noundef double @_ZN6cvtest2TS25get_test_case_count_scaleEv(ptr noundef nonnull align 8 dereferenceable(280) %0) #7 comdat align 2 {
  %2 = alloca ptr, align 8
  store ptr %0, ptr %2, align 8, !tbaa !65
  %3 = load ptr, ptr %2, align 8
  %4 = getelementptr inbounds nuw %"class.cvtest::TS", ptr %3, i32 0, i32 5
  %5 = getelementptr inbounds nuw %"struct.cvtest::TSParams", ptr %4, i32 0, i32 2
  %6 = load double, ptr %5, align 8, !tbaa !66
  ret double %6
}

; Function Attrs: mustprogress uwtable
define hidden noundef i32 @_ZN6cvtest9ArrayTest11read_paramsERKN2cv11FileStorageE(ptr noundef nonnull align 8 dereferenceable(136) %0, ptr noundef nonnull align 8 dereferenceable(64) %1) unnamed_addr #6 align 2 {
  %3 = alloca i32, align 4
  %4 = alloca ptr, align 8
  %5 = alloca ptr, align 8
  %6 = alloca i32, align 4
  %7 = alloca i32, align 4
  %8 = alloca %"class.cv::FileNode", align 8
  %9 = alloca %"class.cv::FileNode", align 8
  %10 = alloca %"class.cv::FileNode", align 8
  store ptr %0, ptr %4, align 8, !tbaa !13
  store ptr %1, ptr %5, align 8, !tbaa !59
  %11 = load ptr, ptr %4, align 8
  call void @llvm.lifetime.start.p0(i64 4, ptr %6) #3
  %12 = load ptr, ptr %5, align 8, !tbaa !59
  %13 = call noundef i32 @_ZN6cvtest8BaseTest11read_paramsERKN2cv11FileStorageE(ptr noundef nonnull align 8 dereferenceable(56) %11, ptr noundef nonnull align 8 dereferenceable(64) %12)
  store i32 %13, ptr %6, align 4, !tbaa !8
  %14 = load i32, ptr %6, align 4, !tbaa !8
  %15 = icmp slt i32 %14, 0
  br i1 %15, label %16, label %18

16:                                               ; preds = %2
  %17 = load i32, ptr %6, align 4, !tbaa !8
  store i32 %17, ptr %3, align 4
  store i32 1, ptr %7, align 4
  br label %55

18:                                               ; preds = %2
  call void @llvm.lifetime.start.p0(i64 24, ptr %8) #3
  %19 = load ptr, ptr %5, align 8, !tbaa !59
  call void @_ZN6cvtest8BaseTest10find_paramERKN2cv11FileStorageEPKc(ptr dead_on_unwind writable sret(%"class.cv::FileNode") align 8 %8, ptr noundef nonnull align 8 dereferenceable(56) %11, ptr noundef nonnull align 8 dereferenceable(64) %19, ptr noundef @.str)
  %20 = getelementptr inbounds nuw %"class.cvtest::ArrayTest", ptr %11, i32 0, i32 5
  %21 = getelementptr inbounds nuw %"class.cvtest::ArrayTest", ptr %11, i32 0, i32 5
  %22 = load i32, ptr %21, align 4, !tbaa !39
  call void @_ZN2cv4readERKNS_8FileNodeERii(ptr noundef nonnull align 8 dereferenceable(24) %8, ptr noundef nonnull align 4 dereferenceable(4) %20, i32 noundef %22)
  call void @llvm.lifetime.end.p0(i64 24, ptr %8) #3
  call void @llvm.lifetime.start.p0(i64 24, ptr %9) #3
  %23 = load ptr, ptr %5, align 8, !tbaa !59
  call void @_ZN6cvtest8BaseTest10find_paramERKN2cv11FileStorageEPKc(ptr dead_on_unwind writable sret(%"class.cv::FileNode") align 8 %9, ptr noundef nonnull align 8 dereferenceable(56) %11, ptr noundef nonnull align 8 dereferenceable(64) %23, ptr noundef @.str.21)
  %24 = getelementptr inbounds nuw %"class.cvtest::ArrayTest", ptr %11, i32 0, i32 6
  %25 = getelementptr inbounds nuw %"class.cvtest::ArrayTest", ptr %11, i32 0, i32 6
  %26 = load i32, ptr %25, align 8, !tbaa !40
  call void @_ZN2cv4readERKNS_8FileNodeERii(ptr noundef nonnull align 8 dereferenceable(24) %9, ptr noundef nonnull align 4 dereferenceable(4) %24, i32 noundef %26)
  call void @llvm.lifetime.end.p0(i64 24, ptr %9) #3
  call void @llvm.lifetime.start.p0(i64 24, ptr %10) #3
  %27 = load ptr, ptr %5, align 8, !tbaa !59
  call void @_ZN6cvtest8BaseTest10find_paramERKN2cv11FileStorageEPKc(ptr dead_on_unwind writable sret(%"class.cv::FileNode") align 8 %10, ptr noundef nonnull align 8 dereferenceable(56) %11, ptr noundef nonnull align 8 dereferenceable(64) %27, ptr noundef @.str.22)
  %28 = getelementptr inbounds nuw %"class.cvtest::BaseTest", ptr %11, i32 0, i32 1
  %29 = getelementptr inbounds nuw %"class.cvtest::BaseTest", ptr %11, i32 0, i32 1
  %30 = load i32, ptr %29, align 8, !tbaa !17
  call void @_ZN2cv4readERKNS_8FileNodeERii(ptr noundef nonnull align 8 dereferenceable(24) %10, ptr noundef nonnull align 4 dereferenceable(4) %28, i32 noundef %30)
  call void @llvm.lifetime.end.p0(i64 24, ptr %10) #3
  %31 = getelementptr inbounds nuw %"class.cvtest::BaseTest", ptr %11, i32 0, i32 1
  %32 = load i32, ptr %31, align 8, !tbaa !17
  %33 = sitofp i32 %32 to double
  %34 = getelementptr inbounds nuw %"class.cvtest::BaseTest", ptr %11, i32 0, i32 3
  %35 = load ptr, ptr %34, align 8, !tbaa !61
  %36 = call noundef double @_ZN6cvtest2TS25get_test_case_count_scaleEv(ptr noundef nonnull align 8 dereferenceable(280) %35)
  %37 = fmul double %33, %36
  %38 = call noundef i32 @_ZL7cvRoundd(double noundef %37)
  %39 = getelementptr inbounds nuw %"class.cvtest::BaseTest", ptr %11, i32 0, i32 1
  store i32 %38, ptr %39, align 8, !tbaa !17
  %40 = getelementptr inbounds nuw %"class.cvtest::ArrayTest", ptr %11, i32 0, i32 5
  %41 = load i32, ptr %40, align 4, !tbaa !39
  %42 = call noundef i32 @_ZN6cvtest7clipIntEiii(i32 noundef %41, i32 noundef 0, i32 noundef 20)
  %43 = getelementptr inbounds nuw %"class.cvtest::ArrayTest", ptr %11, i32 0, i32 5
  store i32 %42, ptr %43, align 4, !tbaa !39
  %44 = getelementptr inbounds nuw %"class.cvtest::ArrayTest", ptr %11, i32 0, i32 6
  %45 = load i32, ptr %44, align 8, !tbaa !40
  %46 = getelementptr inbounds nuw %"class.cvtest::ArrayTest", ptr %11, i32 0, i32 5
  %47 = load i32, ptr %46, align 4, !tbaa !39
  %48 = call noundef i32 @_ZN6cvtest7clipIntEiii(i32 noundef %45, i32 noundef %47, i32 noundef 20)
  %49 = getelementptr inbounds nuw %"class.cvtest::ArrayTest", ptr %11, i32 0, i32 6
  store i32 %48, ptr %49, align 8, !tbaa !40
  %50 = getelementptr inbounds nuw %"class.cvtest::BaseTest", ptr %11, i32 0, i32 1
  %51 = load i32, ptr %50, align 8, !tbaa !17
  %52 = call noundef i32 @_ZN6cvtest7clipIntEiii(i32 noundef %51, i32 noundef 0, i32 noundef 100000)
  %53 = getelementptr inbounds nuw %"class.cvtest::BaseTest", ptr %11, i32 0, i32 1
  store i32 %52, ptr %53, align 8, !tbaa !17
  %54 = load i32, ptr %6, align 4, !tbaa !8
  store i32 %54, ptr %3, align 4
  store i32 1, ptr %7, align 4
  br label %55

55:                                               ; preds = %18, %16
  call void @llvm.lifetime.end.p0(i64 4, ptr %6) #3
  %56 = load i32, ptr %3, align 4
  ret i32 %56
}