; Function Attrs: mustprogress uwtable
define hidden noundef i32 @_ZN6cvtest9ArrayTest11read_paramsERKN2cv11FileStorageE(ptr noundef nonnull align 8 dereferenceable(136) %0, ptr noundef nonnull align 8 dereferenceable(64) %1) unnamed_addr #9 align 2 {
  %3 = alloca %"class.cv::FileNode", align 8
  %4 = alloca %"class.cv::FileNode", align 8
  %5 = alloca %"class.cv::FileNode", align 8
  %6 = tail call noundef i32 @_ZN6cvtest8BaseTest11read_paramsERKN2cv11FileStorageE(ptr noundef nonnull align 8 dereferenceable(56) %0, ptr noundef nonnull align 8 dereferenceable(64) %1)
  %7 = icmp slt i32 %6, 0
  br i1 %7, label %29, label %8

8:                                                ; preds = %2
  call void @llvm.lifetime.start.p0(i64 24, ptr nonnull %3) #22
  call void @_ZN6cvtest8BaseTest10find_paramERKN2cv11FileStorageEPKc(ptr dead_on_unwind nonnull writable sret(%"class.cv::FileNode") align 8 %3, ptr noundef nonnull align 8 dereferenceable(56) %0, ptr noundef nonnull align 8 dereferenceable(64) %1, ptr noundef nonnull @.str)
  %9 = getelementptr inbounds nuw i8, ptr %0, i64 60
  %10 = load i32, ptr %9, align 4, !tbaa !31
  call void @_ZN2cv4readERKNS_8FileNodeERii(ptr noundef nonnull align 8 dereferenceable(24) %3, ptr noundef nonnull align 4 dereferenceable(4) %9, i32 noundef %10)
  call void @llvm.lifetime.end.p0(i64 24, ptr nonnull %3) #22
  call void @llvm.lifetime.start.p0(i64 24, ptr nonnull %4) #22
  call void @_ZN6cvtest8BaseTest10find_paramERKN2cv11FileStorageEPKc(ptr dead_on_unwind nonnull writable sret(%"class.cv::FileNode") align 8 %4, ptr noundef nonnull align 8 dereferenceable(56) %0, ptr noundef nonnull align 8 dereferenceable(64) %1, ptr noundef nonnull @.str.21)
  %11 = getelementptr inbounds nuw i8, ptr %0, i64 64
  %12 = load i32, ptr %11, align 8, !tbaa !32
  call void @_ZN2cv4readERKNS_8FileNodeERii(ptr noundef nonnull align 8 dereferenceable(24) %4, ptr noundef nonnull align 4 dereferenceable(4) %11, i32 noundef %12)
  call void @llvm.lifetime.end.p0(i64 24, ptr nonnull %4) #22
  call void @llvm.lifetime.start.p0(i64 24, ptr nonnull %5) #22
  call void @_ZN6cvtest8BaseTest10find_paramERKN2cv11FileStorageEPKc(ptr dead_on_unwind nonnull writable sret(%"class.cv::FileNode") align 8 %5, ptr noundef nonnull align 8 dereferenceable(56) %0, ptr noundef nonnull align 8 dereferenceable(64) %1, ptr noundef nonnull @.str.22)
  %13 = getelementptr inbounds nuw i8, ptr %0, i64 8
  %14 = load i32, ptr %13, align 8, !tbaa !6
  call void @_ZN2cv4readERKNS_8FileNodeERii(ptr noundef nonnull align 8 dereferenceable(24) %5, ptr noundef nonnull align 4 dereferenceable(4) %13, i32 noundef %14)
  call void @llvm.lifetime.end.p0(i64 24, ptr nonnull %5) #22
  %15 = load i32, ptr %13, align 8, !tbaa !6
  %16 = sitofp i32 %15 to double
  %17 = getelementptr inbounds nuw i8, ptr %0, i64 48
  %18 = load ptr, ptr %17, align 8, !tbaa !52
  %19 = getelementptr inbounds nuw i8, ptr %18, i64 144
  %20 = load double, ptr %19, align 8, !tbaa !53
  %21 = fmul double %20, %16
  %22 = insertelement <2 x double> poison, double %21, i64 0
  %23 = call noundef i32 @llvm.x86.sse2.cvtsd2si(<2 x double> %22)
  %24 = load i32, ptr %9, align 4, !tbaa !31
  %spec.select.i = call i32 @llvm.smax.i32(i32 %24, i32 0)
  %25 = call i32 @llvm.umin.i32(i32 %spec.select.i, i32 20)
  store i32 %25, ptr %9, align 4, !tbaa !31
  %26 = load i32, ptr %11, align 8, !tbaa !32
  %spec.select.i8 = call i32 @llvm.smax.i32(i32 %26, i32 %25)
  %27 = call i32 @llvm.umin.i32(i32 %spec.select.i8, i32 20)
  store i32 %27, ptr %11, align 8, !tbaa !32
  %spec.select.i10 = call i32 @llvm.smax.i32(i32 %23, i32 0)
  %28 = call i32 @llvm.umin.i32(i32 %spec.select.i10, i32 100000)
  store i32 %28, ptr %13, align 8, !tbaa !6
  br label %29

29:                                               ; preds = %2, %8
  ret i32 %6
}